(lp0
(S'1'
p1
S'Mars, NASA'
p2
tp3
a(S'2'
p4
S'AI, robot, Olympics'
p5
tp6
a(S'3'
p7
S'Toronto'
p8
tp9
a(S'4'
p10
S'Toronto, Amazon'
p11
tp12
a(S'5'
p13
S'fashion'
p14
tp15
a(S'6'
p16
S'Mars, Olympics'
p17
tp18
a.